target datalayout = "e-m:e-p270:32:32-p271:32:32-p272:64:64-i64:64-i128:128-f80:128-n8:16:32:64-S128"
target triple = "x86_64-unknown-linux-gnu"

%"class.icu_75::Formattable" = type { %"class.icu_75::UObject", %union.anon, ptr, ptr, i32, %"class.icu_75::UnicodeString" }
%"class.icu_75::UObject" = type { ptr }
%union.anon = type { %struct.anon }
%struct.anon = type { ptr, i32 }
%"class.icu_75::UnicodeString" = type { %"class.icu_75::Replaceable", %"union.icu_75::UnicodeString::StackBufferOrFields" }
%"class.icu_75::Replaceable" = type { %"class.icu_75::UObject" }
%"union.icu_75::UnicodeString::StackBufferOrFields" = type { %struct.anon.1, [32 x i8] }
%struct.anon.1 = type { i16, i32, i32, ptr }
%"class.icu_75::Measure" = type { %"class.icu_75::UObject", %"class.icu_75::Formattable", ptr }

@_ZTIN6icu_757UObjectE = external constant ptr
@_ZTIN6icu_757MeasureE = external constant ptr

; Function Attrs: mustprogress nounwind uwtable
define linkonce_odr noundef nonnull align 8 dereferenceable(112) ptr @_ZNK6icu_757Measure9getNumberEv(ptr noundef nonnull align 8 dereferenceable(128) %this) #0 comdat align 2 {
entry:
  %this.addr = alloca ptr, align 8
  store ptr %this, ptr %this.addr, align 8
  %this1 = load ptr, ptr %this.addr, align 8
  %number = getelementptr inbounds %"class.icu_75::Measure", ptr %this1, i32 0, i32 1
  ret ptr %number
}

; Function Attrs: mustprogress nounwind uwtable
define internal noundef signext i8 @_ZN6icu_75L17instanceOfMeasureEPKNS_7UObjectE(ptr noundef %a) #0 {
entry:
  %a.addr = alloca ptr, align 8
  store ptr %a, ptr %a.addr, align 8
  %0 = load ptr, ptr %a.addr, align 8
  %1 = icmp eq ptr %0, null
  br i1 %1, label %dynamic_cast.null, label %dynamic_cast.notnull

dynamic_cast.notnull:                             ; preds = %entry
  %2 = call ptr @__dynamic_cast(ptr %0, ptr @_ZTIN6icu_757UObjectE, ptr @_ZTIN6icu_757MeasureE, i64 0) #10
  br label %dynamic_cast.end

dynamic_cast.null:                                ; preds = %entry
  br label %dynamic_cast.end

dynamic_cast.end:                                 ; preds = %dynamic_cast.null, %dynamic_cast.notnull
  %3 = phi ptr [ %2, %dynamic_cast.notnull ], [ null, %dynamic_cast.null ]
  %cmp = icmp ne ptr %3, null
  %conv = zext i1 %cmp to i8
  ret i8 %conv
}

; Function Attrs: mustprogress nounwind uwtable
define internal noundef signext i8 @_ZL9U_FAILURE10UErrorCode(i32 noundef %code) #0 {
entry:
  %code.addr = alloca i32, align 4
  store i32 %code, ptr %code.addr, align 4
  %0 = load i32, ptr %code.addr, align 4
  %cmp = icmp sgt i32 %0, 0
  %conv = zext i1 %cmp to i8
  ret i8 %conv
}

; Function Attrs: mustprogress uwtable
define noundef double @_ZNK6icu_7511Formattable9getDoubleER10UErrorCode(ptr noundef nonnull align 8 dereferenceable(112) %this, ptr noundef nonnull align 4 dereferenceable(4) %status) #1 align 2 {
entry:
  %retval = alloca double, align 8
  %this.addr = alloca ptr, align 8
  %status.addr = alloca ptr, align 8
  store ptr %this, ptr %this.addr, align 8
  store ptr %status, ptr %status.addr, align 8
  %this1 = load ptr, ptr %this.addr, align 8
  %0 = load ptr, ptr %status.addr, align 8
  %1 = load i32, ptr %0, align 4
  %call = call noundef signext i8 @_ZL9U_FAILURE10UErrorCode(i32 noundef %1)
  %tobool = icmp ne i8 %call, 0
  br i1 %tobool, label %if.then, label %if.end

if.then:                                          ; preds = %entry
  store double 0.000000e+00, ptr %retval, align 8
  br label %return

if.end:                                           ; preds = %entry
  %fType = getelementptr inbounds %"class.icu_75::Formattable", ptr %this1, i32 0, i32 4
  %2 = load i32, ptr %fType, align 8
  switch i32 %2, label %sw.default [
    i32 2, label %sw.bb
    i32 5, label %sw.bb
    i32 1, label %sw.bb2
    i32 6, label %sw.bb4
  ]

sw.bb:                                            ; preds = %if.end, %if.end
  %fValue = getelementptr inbounds %"class.icu_75::Formattable", ptr %this1, i32 0, i32 1
  %3 = load i64, ptr %fValue, align 8
  %conv = sitofp i64 %3 to double
  store double %conv, ptr %retval, align 8
  br label %return

sw.bb2:                                           ; preds = %if.end
  %fValue3 = getelementptr inbounds %"class.icu_75::Formattable", ptr %this1, i32 0, i32 1
  %4 = load double, ptr %fValue3, align 8
  store double %4, ptr %retval, align 8
  br label %return

sw.bb4:                                           ; preds = %if.end
  %fValue5 = getelementptr inbounds %"class.icu_75::Formattable", ptr %this1, i32 0, i32 1
  %5 = load ptr, ptr %fValue5, align 8
  %cmp = icmp eq ptr %5, null
  br i1 %cmp, label %if.then6, label %if.end7

if.then6:                                         ; preds = %sw.bb4
  %6 = load ptr, ptr %status.addr, align 8
  store i32 7, ptr %6, align 4
  store double 0.000000e+00, ptr %retval, align 8
  br label %return

if.end7:                                          ; preds = %sw.bb4
  %fValue8 = getelementptr inbounds %"class.icu_75::Formattable", ptr %this1, i32 0, i32 1
  %7 = load ptr, ptr %fValue8, align 8
  %call9 = call noundef signext i8 @_ZN6icu_75L17instanceOfMeasureEPKNS_7UObjectE(ptr noundef %7)
  %tobool10 = icmp ne i8 %call9, 0
  br i1 %tobool10, label %if.then11, label %if.end15

if.then11:                                        ; preds = %if.end7
  %fValue12 = getelementptr inbounds %"class.icu_75::Formattable", ptr %this1, i32 0, i32 1
  %8 = load ptr, ptr %fValue12, align 8
  %call13 = call noundef nonnull align 8 dereferenceable(112) ptr @_ZNK6icu_757Measure9getNumberEv(ptr noundef nonnull align 8 dereferenceable(128) %8)
  %9 = load ptr, ptr %status.addr, align 8
  %call14 = call noundef double @_ZNK6icu_7511Formattable9getDoubleER10UErrorCode(ptr noundef nonnull align 8 dereferenceable(112) %call13, ptr noundef nonnull align 4 dereferenceable(4) %9)
  store double %call14, ptr %retval, align 8
  br label %return

if.end15:                                         ; preds = %if.end7
  br label %sw.default

sw.default:                                       ; preds = %if.end15, %if.end
  %10 = load ptr, ptr %status.addr, align 8
  store i32 3, ptr %10, align 4
  store double 0.000000e+00, ptr %retval, align 8
  br label %return

return:                                           ; preds = %sw.default, %if.then11, %if.then6, %sw.bb2, %sw.bb, %if.then
  %11 = load double, ptr %retval, align 8
  ret double %11
}