; Function Attrs: mustprogress nofree nounwind memory(read, argmem: readwrite) uwtable
define noundef double @_ZNK6icu_7511Formattable9getDoubleER10UErrorCode(ptr nocapture noundef nonnull readonly align 8 dereferenceable(112) %this, ptr nocapture noundef nonnull align 4 dereferenceable(4) %status) local_unnamed_addr #10 align 2 {
entry:
  %0 = load i32, ptr %status, align 4
  %cmp.i = icmp slt i32 %0, 1
  br i1 %cmp.i, label %if.end.us, label %return

if.end.us:                                        ; preds = %entry, %if.end7.us
  %this.tr10.us = phi ptr [ %number.i.us, %if.end7.us ], [ %this, %entry ]
  %fType.us = getelementptr inbounds i8, ptr %this.tr10.us, i64 40
  %1 = load i32, ptr %fType.us, align 8
  switch i32 %1, label %sw.default [
    i32 2, label %sw.bb
    i32 5, label %sw.bb
    i32 1, label %sw.bb2
    i32 6, label %sw.bb4.us
  ]

sw.bb4.us:                                        ; preds = %if.end.us
  %fValue5.us = getelementptr inbounds i8, ptr %this.tr10.us, i64 8
  %2 = load ptr, ptr %fValue5.us, align 8
  %cmp.us = icmp eq ptr %2, null
  br i1 %cmp.us, label %if.then6, label %if.end7.us

if.end7.us:                                       ; preds = %sw.bb4.us
  %3 = tail call ptr @__dynamic_cast(ptr nonnull %2, ptr nonnull @_ZTIN6icu_757UObjectE, ptr nonnull @_ZTIN6icu_757MeasureE, i64 0) #16
  %cmp.i4.not.us = icmp eq ptr %3, null
  %number.i.us = getelementptr inbounds i8, ptr %2, i64 8
  br i1 %cmp.i4.not.us, label %sw.default, label %if.end.us

sw.bb:                                            ; preds = %if.end.us, %if.end.us
  %fValue = getelementptr inbounds i8, ptr %this.tr10.us, i64 8
  %4 = load i64, ptr %fValue, align 8
  %conv = sitofp i64 %4 to double
  br label %return

sw.bb2:                                           ; preds = %if.end.us
  %fValue3 = getelementptr inbounds i8, ptr %this.tr10.us, i64 8
  %5 = load double, ptr %fValue3, align 8
  br label %return

if.then6:                                         ; preds = %sw.bb4.us
  store i32 7, ptr %status, align 4
  br label %return

sw.default:                                       ; preds = %if.end.us, %if.end7.us
  store i32 3, ptr %status, align 4
  br label %return

return:                                           ; preds = %entry, %sw.default, %if.then6, %sw.bb2, %sw.bb
  %retval.0 = phi double [ 0.000000e+00, %sw.default ], [ 0.000000e+00, %if.then6 ], [ %5, %sw.bb2 ], [ %conv, %sw.bb ], [ 0.000000e+00, %entry ]
  ret double %retval.0
}